; Function Attrs: mustprogress nofree norecurse nosync nounwind sspstrong memory(readwrite, inaccessiblemem: none) uwtable
define void @_ZN3tbb6detail2r117thread_dispatcher13remove_clientERNS1_24thread_dispatcher_clientE(ptr noundef nonnull align 8 dereferenceable(152) %0, ptr noundef nonnull readonly align 8 dereferenceable(32) %1) local_unnamed_addr #9 align 2 {
  %3 = getelementptr inbounds nuw i8, ptr %0, i64 16
  %4 = getelementptr inbounds nuw i8, ptr %1, i64 16
  %5 = load ptr, ptr %4, align 8, !tbaa !39
  %6 = getelementptr inbounds nuw i8, ptr %5, i64 220
  %7 = load i32, ptr %6, align 4, !tbaa !42
  %8 = zext i32 %7 to i64
  %.idx = mul nuw nsw i64 %8, 24
  %9 = getelementptr inbounds nuw i8, ptr %3, i64 %.idx
  %10 = getelementptr inbounds nuw i8, ptr %9, i64 16
  %11 = load i64, ptr %10, align 8, !tbaa !84
  %12 = add i64 %11, -1
  store i64 %12, ptr %10, align 8, !tbaa !84
  %13 = load ptr, ptr %1, align 8, !tbaa !82
  %14 = getelementptr inbounds nuw i8, ptr %1, i64 8
  %15 = load ptr, ptr %14, align 8, !tbaa !83
  store ptr %13, ptr %15, align 8, !tbaa !82
  %16 = getelementptr inbounds nuw i8, ptr %13, i64 8
  store ptr %15, ptr %16, align 8, !tbaa !83
  %17 = getelementptr inbounds nuw i8, ptr %0, i64 88
  %18 = load ptr, ptr %17, align 8, !tbaa !16
  %19 = icmp eq ptr %18, %1
  %.not.i = icmp eq ptr %18, null
  %or.cond = or i1 %19, %.not.i
  br i1 %or.cond, label %.lr.ph.preheader.i, label %20

20:                                               ; preds = %2
  %21 = getelementptr inbounds nuw i8, ptr %18, i64 16
  %22 = load ptr, ptr %21, align 8, !tbaa !39
  %23 = getelementptr inbounds nuw i8, ptr %22, i64 220
  %24 = load i32, ptr %23, align 4, !tbaa !42
  %.not1415.not.i = icmp eq i32 %24, 0
  br i1 %.not1415.not.i, label %_ZN3tbb6detail2r117thread_dispatcher18select_next_clientEPNS1_24thread_dispatcher_clientE.exit, label %.lr.ph.preheader.i

.lr.ph.preheader.i:                               ; preds = %2, %20
  %25 = phi ptr [ %18, %20 ], [ null, %2 ]
  %.01122.i = phi i32 [ %24, %20 ], [ 3, %2 ]
  %wide.trip.count.i = zext i32 %.01122.i to i64
  br label %.lr.ph.i

26:                                               ; preds = %.lr.ph.i
  %indvars.iv.next.i = add nuw nsw i64 %indvars.iv.i, 1
  %exitcond.not.i = icmp eq i64 %indvars.iv.next.i, %wide.trip.count.i
  br i1 %exitcond.not.i, label %_ZN3tbb6detail2r117thread_dispatcher18select_next_clientEPNS1_24thread_dispatcher_clientE.exit, label %.lr.ph.i, !llvm.loop !73

.lr.ph.i:                                         ; preds = %26, %.lr.ph.preheader.i
  %indvars.iv.i = phi i64 [ 0, %.lr.ph.preheader.i ], [ %indvars.iv.next.i, %26 ]
  %27 = getelementptr inbounds nuw [3 x %"class.tbb::detail::r1::intrusive_list"], ptr %3, i64 0, i64 %indvars.iv.i
  %28 = getelementptr inbounds nuw i8, ptr %27, i64 8
  %29 = load ptr, ptr %28, align 8, !tbaa !15
  %30 = icmp eq ptr %29, %27
  br i1 %30, label %26, label %_ZN3tbb6detail2r117thread_dispatcher18select_next_clientEPNS1_24thread_dispatcher_clientE.exit

_ZN3tbb6detail2r117thread_dispatcher18select_next_clientEPNS1_24thread_dispatcher_clientE.exit: ; preds = %26, %.lr.ph.i, %20
  %spec.select.i = phi ptr [ %18, %20 ], [ %25, %26 ], [ %29, %.lr.ph.i ]
  store ptr %spec.select.i, ptr %17, align 8, !tbaa !16
  ret void
}